target datalayout = "e-m:e-p270:32:32-p271:32:32-p272:64:64-i64:64-i128:128-f80:128-n8:16:32:64-S128"
target triple = "x86_64-pc-linux-gnu"

%struct.FilePathList = type { i32, i32, ptr }
%struct.dirent = type { i64, i64, i16, i8, [256 x i8] }
%struct.stat = type { i64, i64, i64, i32, i32, i32, i32, i64, i64, i64, i64, i64, i64, i64, i64, i64, i64, [3 x i64] }

@.str.185 = private unnamed_addr constant [6 x i8] c"%s/%s\00", align 1
@.str.192 = private unnamed_addr constant [2 x i8] c".\00", align 1
@.str.193 = private unnamed_addr constant [3 x i8] c"..\00", align 1
@.str.1382 = private unnamed_addr constant [4 x i8] c"DIR\00", align 1
@.str.1383 = private unnamed_addr constant [40 x i8] c"FILEIO: Directory cannot be opened (%s)\00", align 1
@.str.1384 = private unnamed_addr constant [58 x i8] c"FILEIO: Maximum filepath scan capacity reached (%i files)\00", align 1

; Function Attrs: nounwind uwtable
define zeroext i1 @IsPathFile(ptr noundef %0) #0 {
  %2 = alloca ptr, align 8
  %3 = alloca %struct.stat, align 8
  store ptr %0, ptr %2, align 8
  call void @llvm.lifetime.start.p0(i64 144, ptr %3) #16
  call void @llvm.memset.p0.i64(ptr align 8 %3, i8 0, i64 144, i1 false)
  %4 = load ptr, ptr %2, align 8
  %5 = call i32 @stat(ptr noundef %4, ptr noundef %3) #16
  %6 = getelementptr inbounds nuw %struct.stat, ptr %3, i32 0, i32 3
  %7 = load i32, ptr %6, align 8
  %8 = and i32 %7, 61440
  %9 = icmp eq i32 %8, 32768
  call void @llvm.lifetime.end.p0(i64 144, ptr %3) #16
  ret i1 %9
}

; Function Attrs: nounwind uwtable
define internal void @ScanDirectoryFilesRecursively(ptr noundef %0, ptr noundef %1, ptr noundef %2) #0 {
  %4 = alloca ptr, align 8
  %5 = alloca ptr, align 8
  %6 = alloca ptr, align 8
  %7 = alloca [4096 x i8], align 16
  %8 = alloca ptr, align 8
  %9 = alloca ptr, align 8
  store ptr %0, ptr %4, align 8
  store ptr %1, ptr %5, align 8
  store ptr %2, ptr %6, align 8
  call void @llvm.lifetime.start.p0(i64 4096, ptr %7) #16
  call void @llvm.memset.p0.i64(ptr align 16 %7, i8 0, i64 4096, i1 false)
  %10 = getelementptr inbounds [4096 x i8], ptr %7, i64 0, i64 0
  call void @llvm.memset.p0.i64(ptr align 16 %10, i8 0, i64 4096, i1 false)
  call void @llvm.lifetime.start.p0(i64 8, ptr %8) #16
  store ptr null, ptr %8, align 8
  call void @llvm.lifetime.start.p0(i64 8, ptr %9) #16
  %11 = load ptr, ptr %4, align 8
  %12 = call ptr @opendir(ptr noundef %11)
  store ptr %12, ptr %9, align 8
  %13 = load ptr, ptr %9, align 8
  %14 = icmp ne ptr %13, null
  br i1 %14, label %15, label %148

15:                                               ; preds = %3
  br label %16

16:                                               ; preds = %144, %15
  %17 = load ptr, ptr %9, align 8
  %18 = call ptr @readdir(ptr noundef %17)
  store ptr %18, ptr %8, align 8
  %19 = icmp ne ptr %18, null
  br i1 %19, label %20, label %28

20:                                               ; preds = %16
  %21 = load ptr, ptr %5, align 8
  %22 = getelementptr inbounds nuw %struct.FilePathList, ptr %21, i32 0, i32 1
  %23 = load i32, ptr %22, align 4
  %24 = load ptr, ptr %5, align 8
  %25 = getelementptr inbounds nuw %struct.FilePathList, ptr %24, i32 0, i32 0
  %26 = load i32, ptr %25, align 8
  %27 = icmp ult i32 %23, %26
  br label %28

28:                                               ; preds = %20, %16
  %29 = phi i1 [ false, %16 ], [ %27, %20 ]
  br i1 %29, label %30, label %145

30:                                               ; preds = %28
  %31 = load ptr, ptr %8, align 8
  %32 = getelementptr inbounds nuw %struct.dirent, ptr %31, i32 0, i32 4
  %33 = getelementptr inbounds [256 x i8], ptr %32, i64 0, i64 0
  %34 = call i32 @strcmp(ptr noundef %33, ptr noundef @.str.192) #17
  %35 = icmp ne i32 %34, 0
  br i1 %35, label %36, label %144

36:                                               ; preds = %30
  %37 = load ptr, ptr %8, align 8
  %38 = getelementptr inbounds nuw %struct.dirent, ptr %37, i32 0, i32 4
  %39 = getelementptr inbounds [256 x i8], ptr %38, i64 0, i64 0
  %40 = call i32 @strcmp(ptr noundef %39, ptr noundef @.str.193) #17
  %41 = icmp ne i32 %40, 0
  br i1 %41, label %42, label %144

42:                                               ; preds = %36
  %43 = getelementptr inbounds [4096 x i8], ptr %7, i64 0, i64 0
  %44 = load ptr, ptr %4, align 8
  %45 = load ptr, ptr %8, align 8
  %46 = getelementptr inbounds nuw %struct.dirent, ptr %45, i32 0, i32 4
  %47 = getelementptr inbounds [256 x i8], ptr %46, i64 0, i64 0
  %48 = call i32 (ptr, ptr, ...) @sprintf(ptr noundef %43, ptr noundef @.str.185, ptr noundef %44, ptr noundef %47) #16
  %49 = getelementptr inbounds [4096 x i8], ptr %7, i64 0, i64 0
  %50 = call zeroext i1 @IsPathFile(ptr noundef %49)
  br i1 %50, label %51, label %104

51:                                               ; preds = %42
  %52 = load ptr, ptr %6, align 8
  %53 = icmp ne ptr %52, null
  br i1 %53, label %54, label %75

54:                                               ; preds = %51
  %55 = getelementptr inbounds [4096 x i8], ptr %7, i64 0, i64 0
  %56 = load ptr, ptr %6, align 8
  %57 = call zeroext i1 @IsFileExtension(ptr noundef %55, ptr noundef %56)
  br i1 %57, label %58, label %74

58:                                               ; preds = %54
  %59 = load ptr, ptr %5, align 8
  %60 = getelementptr inbounds nuw %struct.FilePathList, ptr %59, i32 0, i32 2
  %61 = load ptr, ptr %60, align 8
  %62 = load ptr, ptr %5, align 8
  %63 = getelementptr inbounds nuw %struct.FilePathList, ptr %62, i32 0, i32 1
  %64 = load i32, ptr %63, align 4
  %65 = zext i32 %64 to i64
  %66 = getelementptr inbounds nuw ptr, ptr %61, i64 %65
  %67 = load ptr, ptr %66, align 8
  %68 = getelementptr inbounds [4096 x i8], ptr %7, i64 0, i64 0
  %69 = call ptr @strcpy(ptr noundef %67, ptr noundef %68) #16
  %70 = load ptr, ptr %5, align 8
  %71 = getelementptr inbounds nuw %struct.FilePathList, ptr %70, i32 0, i32 1
  %72 = load i32, ptr %71, align 4
  %73 = add i32 %72, 1
  store i32 %73, ptr %71, align 4
  br label %74

74:                                               ; preds = %58, %54
  br label %91

75:                                               ; preds = %51
  %76 = load ptr, ptr %5, align 8
  %77 = getelementptr inbounds nuw %struct.FilePathList, ptr %76, i32 0, i32 2
  %78 = load ptr, ptr %77, align 8
  %79 = load ptr, ptr %5, align 8
  %80 = getelementptr inbounds nuw %struct.FilePathList, ptr %79, i32 0, i32 1
  %81 = load i32, ptr %80, align 4
  %82 = zext i32 %81 to i64
  %83 = getelementptr inbounds nuw ptr, ptr %78, i64 %82
  %84 = load ptr, ptr %83, align 8
  %85 = getelementptr inbounds [4096 x i8], ptr %7, i64 0, i64 0
  %86 = call ptr @strcpy(ptr noundef %84, ptr noundef %85) #16
  %87 = load ptr, ptr %5, align 8
  %88 = getelementptr inbounds nuw %struct.FilePathList, ptr %87, i32 0, i32 1
  %89 = load i32, ptr %88, align 4
  %90 = add i32 %89, 1
  store i32 %90, ptr %88, align 4
  br label %91

91:                                               ; preds = %75, %74
  %92 = load ptr, ptr %5, align 8
  %93 = getelementptr inbounds nuw %struct.FilePathList, ptr %92, i32 0, i32 1
  %94 = load i32, ptr %93, align 4
  %95 = load ptr, ptr %5, align 8
  %96 = getelementptr inbounds nuw %struct.FilePathList, ptr %95, i32 0, i32 0
  %97 = load i32, ptr %96, align 8
  %98 = icmp uge i32 %94, %97
  br i1 %98, label %99, label %103

99:                                               ; preds = %91
  %100 = load ptr, ptr %5, align 8
  %101 = getelementptr inbounds nuw %struct.FilePathList, ptr %100, i32 0, i32 0
  %102 = load i32, ptr %101, align 8
  call void (i32, ptr, ...) @TraceLog(i32 noundef 4, ptr noundef @.str.1384, i32 noundef %102)
  br label %145

103:                                              ; preds = %91
  br label %143

104:                                              ; preds = %42
  %105 = load ptr, ptr %6, align 8
  %106 = icmp ne ptr %105, null
  br i1 %106, label %107, label %127

107:                                              ; preds = %104
  %108 = load ptr, ptr %6, align 8
  %109 = call ptr @strstr(ptr noundef %108, ptr noundef @.str.1382) #17
  %110 = icmp ne ptr %109, null
  br i1 %110, label %111, label %127

111:                                              ; preds = %107
  %112 = load ptr, ptr %5, align 8
  %113 = getelementptr inbounds nuw %struct.FilePathList, ptr %112, i32 0, i32 2
  %114 = load ptr, ptr %113, align 8
  %115 = load ptr, ptr %5, align 8
  %116 = getelementptr inbounds nuw %struct.FilePathList, ptr %115, i32 0, i32 1
  %117 = load i32, ptr %116, align 4
  %118 = zext i32 %117 to i64
  %119 = getelementptr inbounds nuw ptr, ptr %114, i64 %118
  %120 = load ptr, ptr %119, align 8
  %121 = getelementptr inbounds [4096 x i8], ptr %7, i64 0, i64 0
  %122 = call ptr @strcpy(ptr noundef %120, ptr noundef %121) #16
  %123 = load ptr, ptr %5, align 8
  %124 = getelementptr inbounds nuw %struct.FilePathList, ptr %123, i32 0, i32 1
  %125 = load i32, ptr %124, align 4
  %126 = add i32 %125, 1
  store i32 %126, ptr %124, align 4
  br label %127

127:                                              ; preds = %111, %107, %104
  %128 = load ptr, ptr %5, align 8
  %129 = getelementptr inbounds nuw %struct.FilePathList, ptr %128, i32 0, i32 1
  %130 = load i32, ptr %129, align 4
  %131 = load ptr, ptr %5, align 8
  %132 = getelementptr inbounds nuw %struct.FilePathList, ptr %131, i32 0, i32 0
  %133 = load i32, ptr %132, align 8
  %134 = icmp uge i32 %130, %133
  br i1 %134, label %135, label %139

135:                                              ; preds = %127
  %136 = load ptr, ptr %5, align 8
  %137 = getelementptr inbounds nuw %struct.FilePathList, ptr %136, i32 0, i32 0
  %138 = load i32, ptr %137, align 8
  call void (i32, ptr, ...) @TraceLog(i32 noundef 4, ptr noundef @.str.1384, i32 noundef %138)
  br label %145

139:                                              ; preds = %127
  %140 = getelementptr inbounds [4096 x i8], ptr %7, i64 0, i64 0
  %141 = load ptr, ptr %5, align 8
  %142 = load ptr, ptr %6, align 8
  call void @ScanDirectoryFilesRecursively(ptr noundef %140, ptr noundef %141, ptr noundef %142)
  br label %143

143:                                              ; preds = %139, %103
  br label %144

144:                                              ; preds = %143, %36, %30
  br label %16

145:                                              ; preds = %135, %99, %28
  %146 = load ptr, ptr %9, align 8
  %147 = call i32 @closedir(ptr noundef %146)
  br label %150

148:                                              ; preds = %3
  %149 = load ptr, ptr %4, align 8
  call void (i32, ptr, ...) @TraceLog(i32 noundef 4, ptr noundef @.str.1383, ptr noundef %149)
  br label %150

150:                                              ; preds = %148, %145
  call void @llvm.lifetime.end.p0(i64 8, ptr %9) #16
  call void @llvm.lifetime.end.p0(i64 8, ptr %8) #16
  call void @llvm.lifetime.end.p0(i64 4096, ptr %7) #16
  ret void
}