; Function Attrs: nounwind uwtable
define internal fastcc void @ScanDirectoryFilesRecursively(ptr noundef %0, ptr noundef nonnull captures(none) %1, ptr noundef %2) unnamed_addr #0 {
  %4 = alloca %struct.stat, align 8
  %5 = alloca [4096 x i8], align 16
  call void @llvm.lifetime.start.p0(i64 4096, ptr nonnull %5) #56
  call void @llvm.memset.p0.i64(ptr noundef nonnull align 16 dereferenceable(4096) %5, i8 0, i64 4096, i1 false)
  %6 = tail call ptr @opendir(ptr noundef %0)
  %.not = icmp eq ptr %6, null
  br i1 %.not, label %63, label %.preheader

.preheader:                                       ; preds = %3
  %7 = tail call ptr @readdir(ptr noundef nonnull %6) #56
  %.not3548 = icmp eq ptr %7, null
  br i1 %.not3548, label %.critedge, label %.lr.ph

.lr.ph:                                           ; preds = %.preheader
  %8 = getelementptr inbounds nuw i8, ptr %1, i64 4
  %9 = getelementptr inbounds nuw i8, ptr %4, i64 24
  %.not38 = icmp eq ptr %2, null
  %10 = getelementptr inbounds nuw i8, ptr %1, i64 8
  br label %11

11:                                               ; preds = %.lr.ph, %60
  %12 = phi ptr [ %7, %.lr.ph ], [ %61, %60 ]
  %13 = load i32, ptr %8, align 4
  %14 = load i32, ptr %1, align 8
  %15 = icmp ult i32 %13, %14
  br i1 %15, label %sub_0, label %.critedge

sub_0:                                            ; preds = %11
  %16 = getelementptr inbounds nuw i8, ptr %12, i64 19
  %17 = load i8, ptr %16, align 1
  %.not50 = icmp eq i8 %17, 46
  br i1 %.not50, label %.tail, label %.tail43.thread

.tail:                                            ; preds = %sub_0
  %18 = getelementptr inbounds nuw i8, ptr %12, i64 20
  %19 = load i8, ptr %18, align 1
  %20 = icmp eq i8 %19, 0
  br i1 %20, label %60, label %sub_145

sub_145:                                          ; preds = %.tail
  %21 = getelementptr inbounds nuw i8, ptr %12, i64 20
  %22 = load i8, ptr %21, align 1
  %.not52 = icmp eq i8 %22, 46
  br i1 %.not52, label %.tail43, label %.tail43.thread

.tail43:                                          ; preds = %sub_145
  %23 = getelementptr inbounds nuw i8, ptr %12, i64 21
  %24 = load i8, ptr %23, align 1
  %25 = icmp eq i8 %24, 0
  br i1 %25, label %60, label %.tail43.thread

.tail43.thread:                                   ; preds = %sub_0, %sub_145, %.tail43
  %26 = call i32 (ptr, ptr, ...) @sprintf(ptr noundef nonnull dereferenceable(1) %5, ptr noundef nonnull dereferenceable(1) @.str.185, ptr noundef %0, ptr noundef nonnull %16) #56
  call void @llvm.lifetime.start.p0(i64 144, ptr nonnull %4) #56
  call void @llvm.memset.p0.i64(ptr noundef nonnull align 8 dereferenceable(144) %4, i8 0, i64 144, i1 false)
  %27 = call i32 @stat(ptr noundef nonnull readonly %5, ptr noundef nonnull %4) #56
  %28 = load i32, ptr %9, align 8
  %29 = and i32 %28, 61440
  %30 = icmp eq i32 %29, 32768
  call void @llvm.lifetime.end.p0(i64 144, ptr nonnull %4) #56
  br i1 %30, label %31, label %45

31:                                               ; preds = %.tail43.thread
  br i1 %.not38, label %34, label %32

32:                                               ; preds = %31
  %33 = call zeroext i1 @IsFileExtension(ptr noundef nonnull %5, ptr noundef nonnull %2)
  %.pre55 = load i32, ptr %8, align 4
  br i1 %33, label %.sink.split, label %42

34:                                               ; preds = %31
  %35 = load i32, ptr %8, align 4
  br label %.sink.split

.sink.split:                                      ; preds = %32, %34
  %.pre55.sink = phi i32 [ %35, %34 ], [ %.pre55, %32 ]
  %.sink = load ptr, ptr %10, align 8
  %36 = zext i32 %.pre55.sink to i64
  %37 = getelementptr inbounds nuw ptr, ptr %.sink, i64 %36
  %38 = load ptr, ptr %37, align 8
  %39 = call ptr @strcpy(ptr noundef nonnull dereferenceable(1) %38, ptr noundef nonnull dereferenceable(1) %5) #56
  %40 = load i32, ptr %8, align 4
  %41 = add i32 %40, 1
  store i32 %41, ptr %8, align 4
  br label %42

42:                                               ; preds = %.sink.split, %32
  %43 = phi i32 [ %.pre55, %32 ], [ %41, %.sink.split ]
  %44 = load i32, ptr %1, align 8
  %.not42 = icmp ult i32 %43, %44
  br i1 %.not42, label %60, label %.critedge.sink.split

45:                                               ; preds = %.tail43.thread
  br i1 %.not38, label %._crit_edge, label %46

._crit_edge:                                      ; preds = %45
  %.pre = load i32, ptr %8, align 4
  br label %56

46:                                               ; preds = %45
  %47 = call ptr @strstr(ptr noundef nonnull dereferenceable(1) %2, ptr noundef nonnull dereferenceable(1) @.str.1382) #57
  %.not39 = icmp eq ptr %47, null
  %.pre54 = load i32, ptr %8, align 4
  br i1 %.not39, label %56, label %48

48:                                               ; preds = %46
  %49 = load ptr, ptr %10, align 8
  %50 = zext i32 %.pre54 to i64
  %51 = getelementptr inbounds nuw ptr, ptr %49, i64 %50
  %52 = load ptr, ptr %51, align 8
  %53 = call ptr @strcpy(ptr noundef nonnull dereferenceable(1) %52, ptr noundef nonnull dereferenceable(1) %5) #56
  %54 = load i32, ptr %8, align 4
  %55 = add i32 %54, 1
  store i32 %55, ptr %8, align 4
  br label %56

56:                                               ; preds = %._crit_edge, %48, %46
  %57 = phi i32 [ %.pre, %._crit_edge ], [ %55, %48 ], [ %.pre54, %46 ]
  %58 = load i32, ptr %1, align 8
  %.not40 = icmp ult i32 %57, %58
  br i1 %.not40, label %59, label %.critedge.sink.split

59:                                               ; preds = %56
  call fastcc void @ScanDirectoryFilesRecursively(ptr noundef nonnull %5, ptr noundef %1, ptr noundef %2)
  br label %60

60:                                               ; preds = %59, %42, %.tail43, %.tail
  %61 = call ptr @readdir(ptr noundef nonnull %6) #56
  %.not35 = icmp eq ptr %61, null
  br i1 %.not35, label %.critedge, label %11

.critedge.sink.split:                             ; preds = %56, %42
  %.lcssa.sink = phi i32 [ %44, %42 ], [ %58, %56 ]
  call void (i32, ptr, ...) @TraceLog(i32 noundef 4, ptr noundef nonnull @.str.1384, i32 noundef %.lcssa.sink) #56
  br label %.critedge

.critedge:                                        ; preds = %11, %60, %.critedge.sink.split, %.preheader
  %62 = call i32 @closedir(ptr noundef nonnull %6)
  br label %64

63:                                               ; preds = %3
  tail call void (i32, ptr, ...) @TraceLog(i32 noundef 4, ptr noundef nonnull @.str.1383, ptr noundef %0) #56
  br label %64

64:                                               ; preds = %63, %.critedge
  call void @llvm.lifetime.end.p0(i64 4096, ptr nonnull %5) #56
  ret void
}